target datalayout = "e-m:e-p270:32:32-p271:32:32-p272:64:64-i64:64-i128:128-f80:128-n8:16:32:64-S128"
target triple = "x86_64-pc-linux-gnu"

%"class.llvm::SmallVectorBase" = type { ptr, i32, i32 }
%"class.llvm::BlockFrequency" = type { i64 }
%"class.llvm::SpillPlacement" = type { %"class.llvm::MachineFunctionPass", ptr, ptr, ptr, ptr, ptr, %"class.llvm::SmallVector.9", %"class.llvm::SmallVector.9", %"class.llvm::SmallVector.14", %"class.llvm::BlockFrequency", %"class.llvm::SparseSet" }
%"class.llvm::MachineFunctionPass" = type { %"class.llvm::FunctionPass.base", %"class.llvm::MachineFunctionProperties", %"class.llvm::MachineFunctionProperties", %"class.llvm::MachineFunctionProperties" }
%"class.llvm::FunctionPass.base" = type { %"class.llvm::Pass.base" }
%"class.llvm::Pass.base" = type <{ ptr, ptr, ptr, i32 }>
%"class.llvm::MachineFunctionProperties" = type { %"class.std::bitset" }
%"class.std::bitset" = type { %"struct.std::_Base_bitset" }
%"struct.std::_Base_bitset" = type { i64 }
%"class.llvm::SmallVector.9" = type { %"class.llvm::SmallVectorImpl.10", %"struct.llvm::SmallVectorStorage.13" }
%"class.llvm::SmallVectorImpl.10" = type { %"class.llvm::SmallVectorTemplateBase.11" }
%"class.llvm::SmallVectorTemplateBase.11" = type { %"class.llvm::SmallVectorTemplateCommon.12" }
%"class.llvm::SmallVectorTemplateCommon.12" = type { %"class.llvm::SmallVectorBase" }
%"struct.llvm::SmallVectorStorage.13" = type { [32 x i8] }
%"class.llvm::SmallVector.14" = type { %"class.llvm::SmallVectorImpl.15", %"struct.llvm::SmallVectorStorage.18" }
%"class.llvm::SmallVectorImpl.15" = type { %"class.llvm::SmallVectorTemplateBase.16" }
%"class.llvm::SmallVectorTemplateBase.16" = type { %"class.llvm::SmallVectorTemplateCommon.17" }
%"class.llvm::SmallVectorTemplateCommon.17" = type { %"class.llvm::SmallVectorBase" }
%"struct.llvm::SmallVectorStorage.18" = type { [64 x i8] }
%"class.llvm::SparseSet" = type <{ %"class.llvm::SmallVector.9", ptr, i32, [4 x i8] }>
%"struct.llvm::SpillPlacement::Node" = type { %"class.llvm::BlockFrequency", %"class.llvm::BlockFrequency", i32, %"class.llvm::SmallVector.103", %"class.llvm::BlockFrequency" }
%"class.llvm::SmallVector.103" = type { %"class.llvm::SmallVectorImpl.104", %"struct.llvm::SmallVectorStorage.107" }
%"class.llvm::SmallVectorImpl.104" = type { %"class.llvm::SmallVectorTemplateBase.105" }
%"class.llvm::SmallVectorTemplateBase.105" = type { %"class.llvm::SmallVectorTemplateCommon.106" }
%"class.llvm::SmallVectorTemplateCommon.106" = type { %"class.llvm::SmallVectorBase" }
%"struct.llvm::SmallVectorStorage.107" = type { [64 x i8] }
%"class.llvm::EdgeBundles" = type { %"class.llvm::MachineFunctionPass", ptr, %"class.llvm::IntEqClasses", %"class.llvm::SmallVector.98" }
%"class.llvm::IntEqClasses" = type <{ %"class.llvm::SmallVector.9", i32, [4 x i8] }>
%"class.llvm::SmallVector.98" = type { %"class.llvm::SmallVectorImpl.99", %"struct.llvm::SmallVectorStorage.102" }
%"class.llvm::SmallVectorImpl.99" = type { %"class.llvm::SmallVectorTemplateBase.100" }
%"class.llvm::SmallVectorTemplateBase.100" = type { %"class.llvm::SmallVectorTemplateCommon.101" }
%"class.llvm::SmallVectorTemplateCommon.101" = type { %"class.llvm::SmallVectorBase" }
%"struct.llvm::SmallVectorStorage.102" = type { [192 x i8] }
%"class.llvm::ArrayRef" = type { ptr, i64 }

; Function Attrs: mustprogress nounwind uwtable
define linkonce_odr hidden noundef ptr @_ZNK4llvm25SmallVectorTemplateCommonIjvE5beginEv(ptr noundef nonnull align 8 dereferenceable(16) %0) #0 comdat align 2 {
  %2 = alloca ptr, align 8
  store ptr %0, ptr %2, align 8
  %3 = load ptr, ptr %2, align 8
  %4 = getelementptr inbounds nuw %"class.llvm::SmallVectorBase", ptr %3, i32 0, i32 0
  %5 = load ptr, ptr %4, align 8
  ret ptr %5
}

; Function Attrs: mustprogress nounwind uwtable
define linkonce_odr hidden void @_ZN4llvm14BlockFrequencyC2Em(ptr noundef nonnull align 8 dereferenceable(8) %0, i64 noundef %1) unnamed_addr #0 comdat align 2 {
  %3 = alloca ptr, align 8
  %4 = alloca i64, align 8
  store ptr %0, ptr %3, align 8
  store i64 %1, ptr %4, align 8
  %5 = load ptr, ptr %3, align 8
  %6 = getelementptr inbounds nuw %"class.llvm::BlockFrequency", ptr %5, i32 0, i32 0
  %7 = load i64, ptr %4, align 8
  store i64 %7, ptr %6, align 8
  ret void
}

; Function Attrs: mustprogress nounwind uwtable
define linkonce_odr hidden noundef nonnull align 4 dereferenceable(4) ptr @_ZNK4llvm25SmallVectorTemplateCommonIjvEixEm(ptr noundef nonnull align 8 dereferenceable(16) %0, i64 noundef %1) #0 comdat align 2 {
  %3 = alloca ptr, align 8
  %4 = alloca i64, align 8
  store ptr %0, ptr %3, align 8
  store i64 %1, ptr %4, align 8
  %5 = load ptr, ptr %3, align 8
  %6 = call noundef ptr @_ZNK4llvm25SmallVectorTemplateCommonIjvE5beginEv(ptr noundef nonnull align 8 dereferenceable(16) %5)
  %7 = load i64, ptr %4, align 8
  %8 = getelementptr inbounds i32, ptr %6, i64 %7
  ret ptr %8
}

; Function Attrs: mustprogress nounwind uwtable
define linkonce_odr hidden i64 @_ZN4llvm14BlockFrequency3maxEv() #0 comdat align 2 {
  %1 = alloca %"class.llvm::BlockFrequency", align 8
  call void @_ZN4llvm14BlockFrequencyC2Em(ptr noundef nonnull align 8 dereferenceable(8) %1, i64 noundef -1)
  %2 = getelementptr inbounds nuw %"class.llvm::BlockFrequency", ptr %1, i32 0, i32 0
  %3 = load i64, ptr %2, align 8
  ret i64 %3
}

; Function Attrs: mustprogress nounwind uwtable
define linkonce_odr hidden noundef i32 @_ZNK4llvm12IntEqClassesixEj(ptr noundef nonnull align 8 dereferenceable(52) %0, i32 noundef %1) #0 comdat align 2 {
  %3 = alloca ptr, align 8
  %4 = alloca i32, align 4
  store ptr %0, ptr %3, align 8
  store i32 %1, ptr %4, align 4
  %5 = load ptr, ptr %3, align 8
  %6 = getelementptr inbounds nuw %"class.llvm::IntEqClasses", ptr %5, i32 0, i32 0
  %7 = load i32, ptr %4, align 4
  %8 = zext i32 %7 to i64
  %9 = call noundef nonnull align 4 dereferenceable(4) ptr @_ZNK4llvm25SmallVectorTemplateCommonIjvEixEm(ptr noundef nonnull align 8 dereferenceable(16) %6, i64 noundef %8)
  %10 = load i32, ptr %9, align 4
  ret i32 %10
}

; Function Attrs: mustprogress nounwind uwtable
define linkonce_odr hidden noundef ptr @_ZN4llvm25SmallVectorTemplateCommonINS_14BlockFrequencyEvE5beginEv(ptr noundef nonnull align 8 dereferenceable(16) %0) #0 comdat align 2 {
  %2 = alloca ptr, align 8
  store ptr %0, ptr %2, align 8
  %3 = load ptr, ptr %2, align 8
  %4 = getelementptr inbounds nuw %"class.llvm::SmallVectorBase", ptr %3, i32 0, i32 0
  %5 = load ptr, ptr %4, align 8
  ret ptr %5
}

; Function Attrs: mustprogress nounwind uwtable
define linkonce_odr hidden void @_ZN4llvm14SpillPlacement4Node7addBiasENS_14BlockFrequencyENS0_16BorderConstraintE(ptr noundef nonnull align 8 dereferenceable(112) %0, i64 %1, i32 noundef %2) #0 comdat align 2 {
  %4 = alloca %"class.llvm::BlockFrequency", align 8
  %5 = alloca ptr, align 8
  %6 = alloca i32, align 4
  %7 = alloca %"class.llvm::BlockFrequency", align 8
  %8 = alloca %"class.llvm::BlockFrequency", align 8
  %9 = alloca %"class.llvm::BlockFrequency", align 8
  %10 = getelementptr inbounds nuw %"class.llvm::BlockFrequency", ptr %4, i32 0, i32 0
  store i64 %1, ptr %10, align 8
  store ptr %0, ptr %5, align 8
  store i32 %2, ptr %6, align 4
  %11 = load ptr, ptr %5, align 8
  %12 = load i32, ptr %6, align 4
  switch i32 %12, label %13 [
    i32 1, label %14
    i32 2, label %19
    i32 4, label %24
  ]

13:                                               ; preds = %3
  br label %28

14:                                               ; preds = %3
  call void @llvm.memcpy.p0.p0.i64(ptr align 8 %7, ptr align 8 %4, i64 8, i1 false)
  %15 = getelementptr inbounds nuw %"struct.llvm::SpillPlacement::Node", ptr %11, i32 0, i32 1
  %16 = getelementptr inbounds nuw %"class.llvm::BlockFrequency", ptr %7, i32 0, i32 0
  %17 = load i64, ptr %16, align 8
  %18 = call noundef nonnull align 8 dereferenceable(8) ptr @_ZN4llvm14BlockFrequencypLES0_(ptr noundef nonnull align 8 dereferenceable(8) %15, i64 %17)
  br label %28

19:                                               ; preds = %3
  call void @llvm.memcpy.p0.p0.i64(ptr align 8 %8, ptr align 8 %4, i64 8, i1 false)
  %20 = getelementptr inbounds nuw %"struct.llvm::SpillPlacement::Node", ptr %11, i32 0, i32 0
  %21 = getelementptr inbounds nuw %"class.llvm::BlockFrequency", ptr %8, i32 0, i32 0
  %22 = load i64, ptr %21, align 8
  %23 = call noundef nonnull align 8 dereferenceable(8) ptr @_ZN4llvm14BlockFrequencypLES0_(ptr noundef nonnull align 8 dereferenceable(8) %20, i64 %22)
  br label %28

24:                                               ; preds = %3
  %25 = call i64 @_ZN4llvm14BlockFrequency3maxEv()
  %26 = getelementptr inbounds nuw %"class.llvm::BlockFrequency", ptr %9, i32 0, i32 0
  store i64 %25, ptr %26, align 8
  %27 = getelementptr inbounds nuw %"struct.llvm::SpillPlacement::Node", ptr %11, i32 0, i32 0
  call void @llvm.memcpy.p0.p0.i64(ptr align 8 %27, ptr align 8 %9, i64 8, i1 false)
  br label %28

28:                                               ; preds = %24, %19, %14, %13
  ret void
}

; Function Attrs: mustprogress nounwind uwtable
define linkonce_odr hidden noundef i32 @_ZNK4llvm11EdgeBundles9getBundleEjb(ptr noundef nonnull align 8 dereferenceable(328) %0, i32 noundef %1, i1 noundef zeroext %2) #0 comdat align 2 {
  %4 = alloca ptr, align 8
  %5 = alloca i32, align 4
  %6 = alloca i8, align 1
  store ptr %0, ptr %4, align 8
  store i32 %1, ptr %5, align 4
  %7 = zext i1 %2 to i8
  store i8 %7, ptr %6, align 1
  %8 = load ptr, ptr %4, align 8
  %9 = getelementptr inbounds nuw %"class.llvm::EdgeBundles", ptr %8, i32 0, i32 2
  %10 = load i32, ptr %5, align 4
  %11 = mul i32 2, %10
  %12 = load i8, ptr %6, align 1
  %13 = trunc i8 %12 to i1
  %14 = zext i1 %13 to i32
  %15 = add i32 %11, %14
  %16 = call noundef i32 @_ZNK4llvm12IntEqClassesixEj(ptr noundef nonnull align 8 dereferenceable(52) %9, i32 noundef %15)
  ret i32 %16
}

; Function Attrs: mustprogress nounwind uwtable
define linkonce_odr hidden noundef nonnull align 8 dereferenceable(8) ptr @_ZN4llvm14BlockFrequencypLES0_(ptr noundef nonnull align 8 dereferenceable(8) %0, i64 %1) #0 comdat align 2 {
  %3 = alloca %"class.llvm::BlockFrequency", align 8
  %4 = alloca ptr, align 8
  %5 = alloca i64, align 8
  %6 = getelementptr inbounds nuw %"class.llvm::BlockFrequency", ptr %3, i32 0, i32 0
  store i64 %1, ptr %6, align 8
  store ptr %0, ptr %4, align 8
  %7 = load ptr, ptr %4, align 8
  %8 = getelementptr inbounds nuw %"class.llvm::BlockFrequency", ptr %3, i32 0, i32 0
  %9 = load i64, ptr %8, align 8
  store i64 %9, ptr %5, align 8
  %10 = getelementptr inbounds nuw %"class.llvm::BlockFrequency", ptr %3, i32 0, i32 0
  %11 = load i64, ptr %10, align 8
  %12 = getelementptr inbounds nuw %"class.llvm::BlockFrequency", ptr %7, i32 0, i32 0
  %13 = load i64, ptr %12, align 8
  %14 = add i64 %13, %11
  store i64 %14, ptr %12, align 8
  %15 = getelementptr inbounds nuw %"class.llvm::BlockFrequency", ptr %7, i32 0, i32 0
  %16 = load i64, ptr %15, align 8
  %17 = load i64, ptr %5, align 8
  %18 = icmp ult i64 %16, %17
  br i1 %18, label %19, label %21

19:                                               ; preds = %2
  %20 = getelementptr inbounds nuw %"class.llvm::BlockFrequency", ptr %7, i32 0, i32 0
  store i64 -1, ptr %20, align 8
  br label %21

21:                                               ; preds = %19, %2
  ret ptr %7
}

; Function Attrs: mustprogress nounwind uwtable
define linkonce_odr hidden noundef nonnull align 8 dereferenceable(8) ptr @_ZN4llvm25SmallVectorTemplateCommonINS_14BlockFrequencyEvEixEm(ptr noundef nonnull align 8 dereferenceable(16) %0, i64 noundef %1) #0 comdat align 2 {
  %3 = alloca ptr, align 8
  %4 = alloca i64, align 8
  store ptr %0, ptr %3, align 8
  store i64 %1, ptr %4, align 8
  %5 = load ptr, ptr %3, align 8
  %6 = call noundef ptr @_ZN4llvm25SmallVectorTemplateCommonINS_14BlockFrequencyEvE5beginEv(ptr noundef nonnull align 8 dereferenceable(16) %5)
  %7 = load i64, ptr %4, align 8
  %8 = getelementptr inbounds %"class.llvm::BlockFrequency", ptr %6, i64 %7
  ret ptr %8
}

; Function Attrs: mustprogress nounwind uwtable
define linkonce_odr hidden noundef ptr @_ZNK4llvm8ArrayRefIjE3endEv(ptr noundef nonnull align 8 dereferenceable(16) %0) #0 comdat align 2 {
  %2 = alloca ptr, align 8
  store ptr %0, ptr %2, align 8
  %3 = load ptr, ptr %2, align 8
  %4 = getelementptr inbounds nuw %"class.llvm::ArrayRef", ptr %3, i32 0, i32 0
  %5 = load ptr, ptr %4, align 8
  %6 = getelementptr inbounds nuw %"class.llvm::ArrayRef", ptr %3, i32 0, i32 1
  %7 = load i64, ptr %6, align 8
  %8 = getelementptr inbounds i32, ptr %5, i64 %7
  ret ptr %8
}

; Function Attrs: mustprogress nounwind uwtable
define linkonce_odr hidden noundef ptr @_ZNK4llvm8ArrayRefIjE5beginEv(ptr noundef nonnull align 8 dereferenceable(16) %0) #0 comdat align 2 {
  %2 = alloca ptr, align 8
  store ptr %0, ptr %2, align 8
  %3 = load ptr, ptr %2, align 8
  %4 = getelementptr inbounds nuw %"class.llvm::ArrayRef", ptr %3, i32 0, i32 0
  %5 = load ptr, ptr %4, align 8
  ret ptr %5
}

; Function Attrs: mustprogress nounwind uwtable
define dso_local void @_ZN4llvm14SpillPlacement12addPrefSpillENS_8ArrayRefIjEEb(ptr noundef nonnull align 8 dereferenceable(344) %0, ptr %1, i64 %2, i1 noundef zeroext %3) #0 align 2 {
  %5 = alloca %"class.llvm::ArrayRef", align 8
  %6 = alloca ptr, align 8
  %7 = alloca i8, align 1
  %8 = alloca ptr, align 8
  %9 = alloca ptr, align 8
  %10 = alloca ptr, align 8
  %11 = alloca i32, align 4
  %12 = alloca %"class.llvm::BlockFrequency", align 8
  %13 = alloca %"class.llvm::BlockFrequency", align 8
  %14 = alloca i32, align 4
  %15 = alloca i32, align 4
  %16 = alloca %"class.llvm::BlockFrequency", align 8
  %17 = alloca %"class.llvm::BlockFrequency", align 8
  %18 = getelementptr inbounds nuw { ptr, i64 }, ptr %5, i32 0, i32 0
  store ptr %1, ptr %18, align 8
  %19 = getelementptr inbounds nuw { ptr, i64 }, ptr %5, i32 0, i32 1
  store i64 %2, ptr %19, align 8
  store ptr %0, ptr %6, align 8
  %20 = zext i1 %3 to i8
  store i8 %20, ptr %7, align 1
  %21 = load ptr, ptr %6, align 8
  store ptr %5, ptr %8, align 8
  %22 = load ptr, ptr %8, align 8
  %23 = call noundef ptr @_ZNK4llvm8ArrayRefIjE5beginEv(ptr noundef nonnull align 8 dereferenceable(16) %22)
  store ptr %23, ptr %9, align 8
  %24 = load ptr, ptr %8, align 8
  %25 = call noundef ptr @_ZNK4llvm8ArrayRefIjE3endEv(ptr noundef nonnull align 8 dereferenceable(16) %24)
  store ptr %25, ptr %10, align 8
  br label %26

26:                                               ; preds = %68, %4
  %27 = load ptr, ptr %9, align 8
  %28 = load ptr, ptr %10, align 8
  %29 = icmp ne ptr %27, %28
  br i1 %29, label %30, label %71

30:                                               ; preds = %26
  %31 = load ptr, ptr %9, align 8
  %32 = load i32, ptr %31, align 4
  store i32 %32, ptr %11, align 4
  %33 = getelementptr inbounds nuw %"class.llvm::SpillPlacement", ptr %21, i32 0, i32 8
  %34 = load i32, ptr %11, align 4
  %35 = zext i32 %34 to i64
  %36 = call noundef nonnull align 8 dereferenceable(8) ptr @_ZN4llvm25SmallVectorTemplateCommonINS_14BlockFrequencyEvEixEm(ptr noundef nonnull align 8 dereferenceable(16) %33, i64 noundef %35)
  call void @llvm.memcpy.p0.p0.i64(ptr align 8 %12, ptr align 8 %36, i64 8, i1 false)
  %37 = load i8, ptr %7, align 1
  %38 = trunc i8 %37 to i1
  br i1 %38, label %39, label %43

39:                                               ; preds = %30
  call void @llvm.memcpy.p0.p0.i64(ptr align 8 %13, ptr align 8 %12, i64 8, i1 false)
  %40 = getelementptr inbounds nuw %"class.llvm::BlockFrequency", ptr %13, i32 0, i32 0
  %41 = load i64, ptr %40, align 8
  %42 = call noundef nonnull align 8 dereferenceable(8) ptr @_ZN4llvm14BlockFrequencypLES0_(ptr noundef nonnull align 8 dereferenceable(8) %12, i64 %41)
  br label %43

43:                                               ; preds = %39, %30
  %44 = getelementptr inbounds nuw %"class.llvm::SpillPlacement", ptr %21, i32 0, i32 2
  %45 = load ptr, ptr %44, align 8
  %46 = load i32, ptr %11, align 4
  %47 = call noundef i32 @_ZNK4llvm11EdgeBundles9getBundleEjb(ptr noundef nonnull align 8 dereferenceable(328) %45, i32 noundef %46, i1 noundef zeroext false)
  store i32 %47, ptr %14, align 4
  %48 = getelementptr inbounds nuw %"class.llvm::SpillPlacement", ptr %21, i32 0, i32 2
  %49 = load ptr, ptr %48, align 8
  %50 = load i32, ptr %11, align 4
  %51 = call noundef i32 @_ZNK4llvm11EdgeBundles9getBundleEjb(ptr noundef nonnull align 8 dereferenceable(328) %49, i32 noundef %50, i1 noundef zeroext true)
  store i32 %51, ptr %15, align 4
  %52 = load i32, ptr %14, align 4
  call void @_ZN4llvm14SpillPlacement8activateEj(ptr noundef nonnull align 8 dereferenceable(344) %21, i32 noundef %52)
  %53 = load i32, ptr %15, align 4
  call void @_ZN4llvm14SpillPlacement8activateEj(ptr noundef nonnull align 8 dereferenceable(344) %21, i32 noundef %53)
  %54 = getelementptr inbounds nuw %"class.llvm::SpillPlacement", ptr %21, i32 0, i32 4
  %55 = load ptr, ptr %54, align 8
  %56 = load i32, ptr %14, align 4
  %57 = zext i32 %56 to i64
  %58 = getelementptr inbounds %"struct.llvm::SpillPlacement::Node", ptr %55, i64 %57
  call void @llvm.memcpy.p0.p0.i64(ptr align 8 %16, ptr align 8 %12, i64 8, i1 false)
  %59 = getelementptr inbounds nuw %"class.llvm::BlockFrequency", ptr %16, i32 0, i32 0
  %60 = load i64, ptr %59, align 8
  call void @_ZN4llvm14SpillPlacement4Node7addBiasENS_14BlockFrequencyENS0_16BorderConstraintE(ptr noundef nonnull align 8 dereferenceable(112) %58, i64 %60, i32 noundef 2)
  %61 = getelementptr inbounds nuw %"class.llvm::SpillPlacement", ptr %21, i32 0, i32 4
  %62 = load ptr, ptr %61, align 8
  %63 = load i32, ptr %15, align 4
  %64 = zext i32 %63 to i64
  %65 = getelementptr inbounds %"struct.llvm::SpillPlacement::Node", ptr %62, i64 %64
  call void @llvm.memcpy.p0.p0.i64(ptr align 8 %17, ptr align 8 %12, i64 8, i1 false)
  %66 = getelementptr inbounds nuw %"class.llvm::BlockFrequency", ptr %17, i32 0, i32 0
  %67 = load i64, ptr %66, align 8
  call void @_ZN4llvm14SpillPlacement4Node7addBiasENS_14BlockFrequencyENS0_16BorderConstraintE(ptr noundef nonnull align 8 dereferenceable(112) %65, i64 %67, i32 noundef 2)
  br label %68

68:                                               ; preds = %43
  %69 = load ptr, ptr %9, align 8
  %70 = getelementptr inbounds i32, ptr %69, i32 1
  store ptr %70, ptr %9, align 8
  br label %26

71:                                               ; preds = %26
  ret void
}