; Function Attrs: mustprogress nounwind uwtable
define dso_local void @_ZN4llvm14SpillPlacement12addPrefSpillENS_8ArrayRefIjEEb(ptr noundef nonnull align 8 dereferenceable(344) %0, ptr readonly %1, i64 %2, i1 noundef zeroext %3) local_unnamed_addr #0 align 2 {
  %5 = getelementptr inbounds i32, ptr %1, i64 %2
  %.not22 = icmp eq i64 %2, 0
  br i1 %.not22, label %._crit_edge, label %.lr.ph

.lr.ph:                                           ; preds = %4
  %6 = getelementptr inbounds nuw i8, ptr %0, i64 192
  %7 = getelementptr inbounds nuw i8, ptr %0, i64 64
  %8 = getelementptr inbounds nuw i8, ptr %0, i64 80
  br i1 %3, label %.lr.ph.split.us, label %.lr.ph.split

.lr.ph.split.us:                                  ; preds = %.lr.ph, %.lr.ph.split.us
  %.023.us = phi ptr [ %33, %.lr.ph.split.us ], [ %1, %.lr.ph ]
  %9 = load i32, ptr %.023.us, align 4
  %10 = zext i32 %9 to i64
  %11 = load ptr, ptr %6, align 8
  %12 = getelementptr inbounds %"class.llvm::BlockFrequency", ptr %11, i64 %10
  %13 = load i64, ptr %12, align 8
  %spec.select.i.us = tail call i64 @llvm.uadd.sat.i64(i64 %13, i64 %13)
  %14 = load ptr, ptr %7, align 8
  %15 = getelementptr inbounds nuw i8, ptr %14, i64 64
  %16 = shl i32 %9, 1
  %17 = zext i32 %16 to i64
  %18 = load ptr, ptr %15, align 8
  %19 = getelementptr inbounds i32, ptr %18, i64 %17
  %20 = load i32, ptr %19, align 4
  %21 = or disjoint i32 %16, 1
  %22 = zext i32 %21 to i64
  %23 = getelementptr inbounds i32, ptr %18, i64 %22
  %24 = load i32, ptr %23, align 4
  tail call void @_ZN4llvm14SpillPlacement8activateEj(ptr noundef nonnull align 8 dereferenceable(344) %0, i32 noundef %20)
  tail call void @_ZN4llvm14SpillPlacement8activateEj(ptr noundef nonnull align 8 dereferenceable(344) %0, i32 noundef %24)
  %25 = load ptr, ptr %8, align 8
  %26 = zext i32 %20 to i64
  %27 = getelementptr inbounds %"struct.llvm::SpillPlacement::Node", ptr %25, i64 %26
  %28 = load i64, ptr %27, align 8
  %spec.select.i5.i.us = tail call i64 @llvm.uadd.sat.i64(i64 %spec.select.i.us, i64 %28)
  store i64 %spec.select.i5.i.us, ptr %27, align 8
  %29 = load ptr, ptr %8, align 8
  %30 = zext i32 %24 to i64
  %31 = getelementptr inbounds %"struct.llvm::SpillPlacement::Node", ptr %29, i64 %30
  %32 = load i64, ptr %31, align 8
  %spec.select.i5.i16.us = tail call i64 @llvm.uadd.sat.i64(i64 %spec.select.i.us, i64 %32)
  store i64 %spec.select.i5.i16.us, ptr %31, align 8
  %33 = getelementptr inbounds i8, ptr %.023.us, i64 4
  %.not.us = icmp eq ptr %33, %5
  br i1 %.not.us, label %._crit_edge, label %.lr.ph.split.us

.lr.ph.split:                                     ; preds = %.lr.ph, %.lr.ph.split
  %.023 = phi ptr [ %58, %.lr.ph.split ], [ %1, %.lr.ph ]
  %34 = load i32, ptr %.023, align 4
  %35 = zext i32 %34 to i64
  %36 = load ptr, ptr %6, align 8
  %37 = getelementptr inbounds %"class.llvm::BlockFrequency", ptr %36, i64 %35
  %38 = load i64, ptr %37, align 8
  %39 = load ptr, ptr %7, align 8
  %40 = getelementptr inbounds nuw i8, ptr %39, i64 64
  %41 = shl i32 %34, 1
  %42 = zext i32 %41 to i64
  %43 = load ptr, ptr %40, align 8
  %44 = getelementptr inbounds i32, ptr %43, i64 %42
  %45 = load i32, ptr %44, align 4
  %46 = or disjoint i32 %41, 1
  %47 = zext i32 %46 to i64
  %48 = getelementptr inbounds i32, ptr %43, i64 %47
  %49 = load i32, ptr %48, align 4
  tail call void @_ZN4llvm14SpillPlacement8activateEj(ptr noundef nonnull align 8 dereferenceable(344) %0, i32 noundef %45)
  tail call void @_ZN4llvm14SpillPlacement8activateEj(ptr noundef nonnull align 8 dereferenceable(344) %0, i32 noundef %49)
  %50 = load ptr, ptr %8, align 8
  %51 = zext i32 %45 to i64
  %52 = getelementptr inbounds %"struct.llvm::SpillPlacement::Node", ptr %50, i64 %51
  %53 = load i64, ptr %52, align 8
  %spec.select.i5.i = tail call i64 @llvm.uadd.sat.i64(i64 %38, i64 %53)
  store i64 %spec.select.i5.i, ptr %52, align 8
  %54 = load ptr, ptr %8, align 8
  %55 = zext i32 %49 to i64
  %56 = getelementptr inbounds %"struct.llvm::SpillPlacement::Node", ptr %54, i64 %55
  %57 = load i64, ptr %56, align 8
  %spec.select.i5.i16 = tail call i64 @llvm.uadd.sat.i64(i64 %38, i64 %57)
  store i64 %spec.select.i5.i16, ptr %56, align 8
  %58 = getelementptr inbounds i8, ptr %.023, i64 4
  %.not = icmp eq ptr %58, %5
  br i1 %.not, label %._crit_edge, label %.lr.ph.split

._crit_edge:                                      ; preds = %.lr.ph.split, %.lr.ph.split.us, %4
  ret void
}